target datalayout = "e-m:e-p270:32:32-p271:32:32-p272:64:64-i64:64-i128:128-f80:128-n8:16:32:64-S128"
target triple = "x86_64-pc-linux-gnu"

%"class.cv::dpm::ParalComputeRootPCAScores" = type { %"class.cv::ParallelLoopBody", ptr, ptr, i32, ptr }
%"class.cv::ParallelLoopBody" = type { ptr }

@_ZTVN2cv16ParallelLoopBodyE = available_externally unnamed_addr constant { [5 x ptr] } { [5 x ptr] [ptr null, ptr @_ZTIN2cv16ParallelLoopBodyE, ptr @_ZN2cv16ParallelLoopBodyD1Ev, ptr @_ZN2cv16ParallelLoopBodyD0Ev, ptr @__cxa_pure_virtual] }, align 8

; Function Attrs: inlinehint mustprogress nounwind uwtable
define linkonce_odr hidden void @_ZN2cv16ParallelLoopBodyC2Ev(ptr noundef nonnull align 8 dereferenceable(8) %0) unnamed_addr #10 comdat align 2 {
  %2 = alloca ptr, align 8
  store ptr %0, ptr %2, align 8, !tbaa !157
  %3 = load ptr, ptr %2, align 8
  store ptr getelementptr inbounds inrange(-16, 24) ({ [5 x ptr] }, ptr @_ZTVN2cv16ParallelLoopBodyE, i32 0, i32 0, i32 2), ptr %3, align 8, !tbaa !152
  ret void
}

; Function Attrs: mustprogress nounwind uwtable
define hidden void @_ZN2cv3dpm25ParalComputeRootPCAScoresC2ERKSt6vectorINS_3MatESaIS3_EERKS3_iRS5_(ptr noundef nonnull align 8 dereferenceable(40) %0, ptr noundef nonnull align 8 dereferenceable(24) %1, ptr noundef nonnull align 8 dereferenceable(96) %2, i32 noundef %3, ptr noundef nonnull align 8 dereferenceable(24) %4) unnamed_addr #6 align 2 {
  %6 = alloca ptr, align 8
  %7 = alloca ptr, align 8
  %8 = alloca ptr, align 8
  %9 = alloca i32, align 4
  %10 = alloca ptr, align 8
  store ptr %0, ptr %6, align 8, !tbaa !150
  store ptr %1, ptr %7, align 8, !tbaa !75
  store ptr %2, ptr %8, align 8, !tbaa !96
  store i32 %3, ptr %9, align 4, !tbaa !14
  store ptr %4, ptr %10, align 8, !tbaa !75
  %11 = load ptr, ptr %6, align 8
  call void @_ZN2cv16ParallelLoopBodyC2Ev(ptr noundef nonnull align 8 dereferenceable(8) %11) #3
  store ptr getelementptr inbounds inrange(-16, 24) ({ [5 x ptr] }, ptr @_ZTVN2cv3dpm25ParalComputeRootPCAScoresE, i32 0, i32 0, i32 2), ptr %11, align 8, !tbaa !152
  %12 = getelementptr inbounds nuw %"class.cv::dpm::ParalComputeRootPCAScores", ptr %11, i32 0, i32 1
  %13 = load ptr, ptr %7, align 8, !tbaa !75
  store ptr %13, ptr %12, align 8, !tbaa !75
  %14 = getelementptr inbounds nuw %"class.cv::dpm::ParalComputeRootPCAScores", ptr %11, i32 0, i32 2
  %15 = load ptr, ptr %8, align 8, !tbaa !96
  store ptr %15, ptr %14, align 8, !tbaa !96
  %16 = getelementptr inbounds nuw %"class.cv::dpm::ParalComputeRootPCAScores", ptr %11, i32 0, i32 3
  %17 = load i32, ptr %9, align 4, !tbaa !14
  store i32 %17, ptr %16, align 8, !tbaa !154
  %18 = getelementptr inbounds nuw %"class.cv::dpm::ParalComputeRootPCAScores", ptr %11, i32 0, i32 4
  %19 = load ptr, ptr %10, align 8, !tbaa !75
  store ptr %19, ptr %18, align 8, !tbaa !75
  ret void
}