; Function Attrs: mustprogress nofree norecurse nosync nounwind willreturn memory(argmem: write) uwtable
define hidden void @_ZN2cv3dpm25ParalComputeRootPCAScoresC2ERKSt6vectorINS_3MatESaIS3_EERKS3_iRS5_(ptr noundef nonnull writeonly align 8 captures(none) dereferenceable(40) initializes((0, 28), (32, 40)) %0, ptr noundef nonnull align 8 dereferenceable(24) %1, ptr noundef nonnull align 8 dereferenceable(96) %2, i32 noundef %3, ptr noundef nonnull align 8 dereferenceable(24) %4) unnamed_addr #8 align 2 {
  store ptr getelementptr inbounds nuw inrange(-16, 24) (i8, ptr @_ZTVN2cv3dpm25ParalComputeRootPCAScoresE, i64 16), ptr %0, align 8, !tbaa !130
  %6 = getelementptr inbounds nuw i8, ptr %0, i64 8
  store ptr %1, ptr %6, align 8, !tbaa !132
  %7 = getelementptr inbounds nuw i8, ptr %0, i64 16
  store ptr %2, ptr %7, align 8, !tbaa !133
  %8 = getelementptr inbounds nuw i8, ptr %0, i64 24
  store i32 %3, ptr %8, align 8, !tbaa !134
  %9 = getelementptr inbounds nuw i8, ptr %0, i64 32
  store ptr %4, ptr %9, align 8, !tbaa !132
  ret void
}